
final.elf:     file format elf64-littleriscv


Disassembly of section .init:

0000000080000000 <_start>:
    80000000:	00002197          	auipc	gp,0x2
    80000004:	bc818193          	addi	gp,gp,-1080 # 80001bc8 <__global_pointer$>
    80000008:	43818113          	addi	sp,gp,1080 # 80002000 <_sp>
    8000000c:	64c000ef          	jal	ra,80000658 <_init>
    80000010:	00000097          	auipc	ra,0x0
    80000014:	ff010113          	addi	sp,sp,-16
    80000018:	00113423          	sd	ra,8(sp)
    8000001c:	00000513          	li	a0,0
    80000020:	00000593          	li	a1,0
    80000024:	6a4000ef          	jal	ra,800006c8 <main>
    80000028:	0000006f          	j	80000028 <_start+0x28>

000000008000002c <__check_fromhost>:
    8000002c:	fe010113          	addi	sp,sp,-32
    80000030:	00813c23          	sd	s0,24(sp)
    80000034:	02010413          	addi	s0,sp,32
    80000038:	00001797          	auipc	a5,0x1
    8000003c:	39878793          	addi	a5,a5,920 # 800013d0 <fromhost>
    80000040:	0007b783          	ld	a5,0(a5)
    80000044:	fef43423          	sd	a5,-24(s0)
    80000048:	fe843783          	ld	a5,-24(s0)
    8000004c:	04078e63          	beqz	a5,800000a8 <__check_fromhost+0x7c>
    80000050:	00001797          	auipc	a5,0x1
    80000054:	38078793          	addi	a5,a5,896 # 800013d0 <fromhost>
    80000058:	0007b023          	sd	zero,0(a5)
    8000005c:	fe843783          	ld	a5,-24(s0)
    80000060:	0387d713          	srli	a4,a5,0x38
    80000064:	00100793          	li	a5,1
    80000068:	04f71463          	bne	a4,a5,800000b0 <__check_fromhost+0x84>
    8000006c:	fe843783          	ld	a5,-24(s0)
    80000070:	00879793          	slli	a5,a5,0x8
    80000074:	0387d793          	srli	a5,a5,0x38
    80000078:	00078863          	beqz	a5,80000088 <__check_fromhost+0x5c>
    8000007c:	00100713          	li	a4,1
    80000080:	02e78c63          	beq	a5,a4,800000b8 <__check_fromhost+0x8c>
    80000084:	0380006f          	j	800000bc <__check_fromhost+0x90>
    80000088:	fe843783          	ld	a5,-24(s0)
    8000008c:	0ff7f793          	andi	a5,a5,255
    80000090:	0007879b          	sext.w	a5,a5
    80000094:	0017879b          	addiw	a5,a5,1
    80000098:	0007871b          	sext.w	a4,a5
    8000009c:	82018793          	addi	a5,gp,-2016 # 800013e8 <htif_console_buf>
    800000a0:	00e7a023          	sw	a4,0(a5)
    800000a4:	0180006f          	j	800000bc <__check_fromhost+0x90>
    800000a8:	00000013          	nop
    800000ac:	0100006f          	j	800000bc <__check_fromhost+0x90>
    800000b0:	00000013          	nop
    800000b4:	0080006f          	j	800000bc <__check_fromhost+0x90>
    800000b8:	00000013          	nop
    800000bc:	01813403          	ld	s0,24(sp)
    800000c0:	02010113          	addi	sp,sp,32
    800000c4:	00008067          	ret

00000000800000c8 <__set_tohost>:
    800000c8:	fd010113          	addi	sp,sp,-48
    800000cc:	02113423          	sd	ra,40(sp)
    800000d0:	02813023          	sd	s0,32(sp)
    800000d4:	03010413          	addi	s0,sp,48
    800000d8:	fea43423          	sd	a0,-24(s0)
    800000dc:	feb43023          	sd	a1,-32(s0)
    800000e0:	fcc43c23          	sd	a2,-40(s0)
    800000e4:	0080006f          	j	800000ec <__set_tohost+0x24>
    800000e8:	f45ff0ef          	jal	ra,8000002c <__check_fromhost>
    800000ec:	00001797          	auipc	a5,0x1
    800000f0:	2dc78793          	addi	a5,a5,732 # 800013c8 <tohost>
    800000f4:	0007b783          	ld	a5,0(a5)
    800000f8:	fe0798e3          	bnez	a5,800000e8 <__set_tohost+0x20>
    800000fc:	fe843783          	ld	a5,-24(s0)
    80000100:	03879713          	slli	a4,a5,0x38
    80000104:	fe043783          	ld	a5,-32(s0)
    80000108:	03079793          	slli	a5,a5,0x30
    8000010c:	00f76733          	or	a4,a4,a5
    80000110:	fd843783          	ld	a5,-40(s0)
    80000114:	00f76733          	or	a4,a4,a5
    80000118:	00001797          	auipc	a5,0x1
    8000011c:	2b078793          	addi	a5,a5,688 # 800013c8 <tohost>
    80000120:	00e7b023          	sd	a4,0(a5)
    80000124:	00000013          	nop
    80000128:	02813083          	ld	ra,40(sp)
    8000012c:	02013403          	ld	s0,32(sp)
    80000130:	03010113          	addi	sp,sp,48
    80000134:	00008067          	ret

0000000080000138 <do_tohost_fromhost>:
    80000138:	fc010113          	addi	sp,sp,-64
    8000013c:	02113c23          	sd	ra,56(sp)
    80000140:	02813823          	sd	s0,48(sp)
    80000144:	04010413          	addi	s0,sp,64
    80000148:	fca43c23          	sd	a0,-40(s0)
    8000014c:	fcb43823          	sd	a1,-48(s0)
    80000150:	fcc43423          	sd	a2,-56(s0)
    80000154:	00001517          	auipc	a0,0x1
    80000158:	28450513          	addi	a0,a0,644 # 800013d8 <htif_lock>
    8000015c:	7b4000ef          	jal	ra,80000910 <spinlock_lock>
    80000160:	fc843603          	ld	a2,-56(s0)
    80000164:	fd043583          	ld	a1,-48(s0)
    80000168:	fd843503          	ld	a0,-40(s0)
    8000016c:	f5dff0ef          	jal	ra,800000c8 <__set_tohost>
    80000170:	00001797          	auipc	a5,0x1
    80000174:	26078793          	addi	a5,a5,608 # 800013d0 <fromhost>
    80000178:	0007b783          	ld	a5,0(a5)
    8000017c:	fef43423          	sd	a5,-24(s0)
    80000180:	fe843783          	ld	a5,-24(s0)
    80000184:	fe0786e3          	beqz	a5,80000170 <do_tohost_fromhost+0x38>
    80000188:	fe843783          	ld	a5,-24(s0)
    8000018c:	0387d793          	srli	a5,a5,0x38
    80000190:	fd843703          	ld	a4,-40(s0)
    80000194:	02f71463          	bne	a4,a5,800001bc <do_tohost_fromhost+0x84>
    80000198:	fe843783          	ld	a5,-24(s0)
    8000019c:	00879793          	slli	a5,a5,0x8
    800001a0:	0387d793          	srli	a5,a5,0x38
    800001a4:	fd043703          	ld	a4,-48(s0)
    800001a8:	00f71a63          	bne	a4,a5,800001bc <do_tohost_fromhost+0x84>
    800001ac:	00001797          	auipc	a5,0x1
    800001b0:	22478793          	addi	a5,a5,548 # 800013d0 <fromhost>
    800001b4:	0007b023          	sd	zero,0(a5)
    800001b8:	00c0006f          	j	800001c4 <do_tohost_fromhost+0x8c>
    800001bc:	e71ff0ef          	jal	ra,8000002c <__check_fromhost>
    800001c0:	fb1ff06f          	j	80000170 <do_tohost_fromhost+0x38>
    800001c4:	00001517          	auipc	a0,0x1
    800001c8:	21450513          	addi	a0,a0,532 # 800013d8 <htif_lock>
    800001cc:	790000ef          	jal	ra,8000095c <spinlock_unlock>
    800001d0:	00000013          	nop
    800001d4:	03813083          	ld	ra,56(sp)
    800001d8:	03013403          	ld	s0,48(sp)
    800001dc:	04010113          	addi	sp,sp,64
    800001e0:	00008067          	ret

00000000800001e4 <htif_syscall>:
    800001e4:	fe010113          	addi	sp,sp,-32
    800001e8:	00113c23          	sd	ra,24(sp)
    800001ec:	00813823          	sd	s0,16(sp)
    800001f0:	02010413          	addi	s0,sp,32
    800001f4:	fea43423          	sd	a0,-24(s0)
    800001f8:	fe843603          	ld	a2,-24(s0)
    800001fc:	00000593          	li	a1,0
    80000200:	00000513          	li	a0,0
    80000204:	f35ff0ef          	jal	ra,80000138 <do_tohost_fromhost>
    80000208:	00000013          	nop
    8000020c:	01813083          	ld	ra,24(sp)
    80000210:	01013403          	ld	s0,16(sp)
    80000214:	02010113          	addi	sp,sp,32
    80000218:	00008067          	ret

000000008000021c <htif_console_putchar>:
    8000021c:	fe010113          	addi	sp,sp,-32
    80000220:	00113c23          	sd	ra,24(sp)
    80000224:	00813823          	sd	s0,16(sp)
    80000228:	02010413          	addi	s0,sp,32
    8000022c:	00050793          	mv	a5,a0
    80000230:	fef407a3          	sb	a5,-17(s0)
    80000234:	00001517          	auipc	a0,0x1
    80000238:	1a450513          	addi	a0,a0,420 # 800013d8 <htif_lock>
    8000023c:	6d4000ef          	jal	ra,80000910 <spinlock_lock>
    80000240:	fef44783          	lbu	a5,-17(s0)
    80000244:	00078613          	mv	a2,a5
    80000248:	00100593          	li	a1,1
    8000024c:	00100513          	li	a0,1
    80000250:	e79ff0ef          	jal	ra,800000c8 <__set_tohost>
    80000254:	00001517          	auipc	a0,0x1
    80000258:	18450513          	addi	a0,a0,388 # 800013d8 <htif_lock>
    8000025c:	700000ef          	jal	ra,8000095c <spinlock_unlock>
    80000260:	00000013          	nop
    80000264:	01813083          	ld	ra,24(sp)
    80000268:	01013403          	ld	s0,16(sp)
    8000026c:	02010113          	addi	sp,sp,32
    80000270:	00008067          	ret

0000000080000274 <htif_poweroff>:
    80000274:	ff010113          	addi	sp,sp,-16
    80000278:	00813423          	sd	s0,8(sp)
    8000027c:	01010413          	addi	s0,sp,16
    80000280:	00001797          	auipc	a5,0x1
    80000284:	15078793          	addi	a5,a5,336 # 800013d0 <fromhost>
    80000288:	0007b023          	sd	zero,0(a5)
    8000028c:	00001797          	auipc	a5,0x1
    80000290:	13c78793          	addi	a5,a5,316 # 800013c8 <tohost>
    80000294:	00100713          	li	a4,1
    80000298:	00e7b023          	sd	a4,0(a5)
    8000029c:	300007b7          	lui	a5,0x30000
    800002a0:	075bd737          	lui	a4,0x75bd
    800002a4:	d1570713          	addi	a4,a4,-747 # 75bcd15 <__stack_size+0x75bc515>
    800002a8:	00e7a023          	sw	a4,0(a5) # 30000000 <__stack_size+0x2ffff800>
    800002ac:	00100073          	ebreak
    800002b0:	fd1ff06f          	j	80000280 <htif_poweroff+0xc>

00000000800002b4 <print_chr>:
    800002b4:	fe010113          	addi	sp,sp,-32
    800002b8:	00113c23          	sd	ra,24(sp)
    800002bc:	00813823          	sd	s0,16(sp)
    800002c0:	02010413          	addi	s0,sp,32
    800002c4:	00050793          	mv	a5,a0
    800002c8:	fef407a3          	sb	a5,-17(s0)
    800002cc:	fef44783          	lbu	a5,-17(s0)
    800002d0:	00078513          	mv	a0,a5
    800002d4:	f49ff0ef          	jal	ra,8000021c <htif_console_putchar>
    800002d8:	00000013          	nop
    800002dc:	01813083          	ld	ra,24(sp)
    800002e0:	01013403          	ld	s0,16(sp)
    800002e4:	02010113          	addi	sp,sp,32
    800002e8:	00008067          	ret

00000000800002ec <print_str>:
    800002ec:	fe010113          	addi	sp,sp,-32
    800002f0:	00113c23          	sd	ra,24(sp)
    800002f4:	00813823          	sd	s0,16(sp)
    800002f8:	02010413          	addi	s0,sp,32
    800002fc:	fea43423          	sd	a0,-24(s0)
    80000300:	01c0006f          	j	8000031c <print_str+0x30>
    80000304:	fe843783          	ld	a5,-24(s0)
    80000308:	00178713          	addi	a4,a5,1
    8000030c:	fee43423          	sd	a4,-24(s0)
    80000310:	0007c783          	lbu	a5,0(a5)
    80000314:	00078513          	mv	a0,a5
    80000318:	f05ff0ef          	jal	ra,8000021c <htif_console_putchar>
    8000031c:	fe843783          	ld	a5,-24(s0)
    80000320:	0007c783          	lbu	a5,0(a5)
    80000324:	fe0790e3          	bnez	a5,80000304 <print_str+0x18>
    80000328:	00000013          	nop
    8000032c:	01813083          	ld	ra,24(sp)
    80000330:	01013403          	ld	s0,16(sp)
    80000334:	02010113          	addi	sp,sp,32
    80000338:	00008067          	ret

000000008000033c <print_dec>:
    8000033c:	fc010113          	addi	sp,sp,-64
    80000340:	02113c23          	sd	ra,56(sp)
    80000344:	02813823          	sd	s0,48(sp)
    80000348:	04010413          	addi	s0,sp,64
    8000034c:	00050793          	mv	a5,a0
    80000350:	fcf42623          	sw	a5,-52(s0)
    80000354:	fd840793          	addi	a5,s0,-40
    80000358:	fef43423          	sd	a5,-24(s0)
    8000035c:	03c0006f          	j	80000398 <print_dec+0x5c>
    80000360:	fcc42703          	lw	a4,-52(s0)
    80000364:	00a00793          	li	a5,10
    80000368:	02f777bb          	remuw	a5,a4,a5
    8000036c:	0007869b          	sext.w	a3,a5
    80000370:	fe843783          	ld	a5,-24(s0)
    80000374:	00178713          	addi	a4,a5,1
    80000378:	fee43423          	sd	a4,-24(s0)
    8000037c:	00068713          	mv	a4,a3
    80000380:	0ff77713          	andi	a4,a4,255
    80000384:	00e78023          	sb	a4,0(a5)
    80000388:	fcc42703          	lw	a4,-52(s0)
    8000038c:	00a00793          	li	a5,10
    80000390:	02f757bb          	divuw	a5,a4,a5
    80000394:	fcf42623          	sw	a5,-52(s0)
    80000398:	fcc42783          	lw	a5,-52(s0)
    8000039c:	0007879b          	sext.w	a5,a5
    800003a0:	fc0790e3          	bnez	a5,80000360 <print_dec+0x24>
    800003a4:	fd840793          	addi	a5,s0,-40
    800003a8:	fe843703          	ld	a4,-24(s0)
    800003ac:	faf70ae3          	beq	a4,a5,80000360 <print_dec+0x24>
    800003b0:	0280006f          	j	800003d8 <print_dec+0x9c>
    800003b4:	fe843783          	ld	a5,-24(s0)
    800003b8:	fff78793          	addi	a5,a5,-1
    800003bc:	fef43423          	sd	a5,-24(s0)
    800003c0:	fe843783          	ld	a5,-24(s0)
    800003c4:	0007c783          	lbu	a5,0(a5)
    800003c8:	0307879b          	addiw	a5,a5,48
    800003cc:	0ff7f793          	andi	a5,a5,255
    800003d0:	00078513          	mv	a0,a5
    800003d4:	e49ff0ef          	jal	ra,8000021c <htif_console_putchar>
    800003d8:	fd840793          	addi	a5,s0,-40
    800003dc:	fe843703          	ld	a4,-24(s0)
    800003e0:	fcf71ae3          	bne	a4,a5,800003b4 <print_dec+0x78>
    800003e4:	00000013          	nop
    800003e8:	03813083          	ld	ra,56(sp)
    800003ec:	03013403          	ld	s0,48(sp)
    800003f0:	04010113          	addi	sp,sp,64
    800003f4:	00008067          	ret

00000000800003f8 <print_hex>:
    800003f8:	fd010113          	addi	sp,sp,-48
    800003fc:	02113423          	sd	ra,40(sp)
    80000400:	02813023          	sd	s0,32(sp)
    80000404:	03010413          	addi	s0,sp,48
    80000408:	fca43c23          	sd	a0,-40(s0)
    8000040c:	00058793          	mv	a5,a1
    80000410:	fcf42a23          	sw	a5,-44(s0)
    80000414:	fd442783          	lw	a5,-44(s0)
    80000418:	fff7879b          	addiw	a5,a5,-1
    8000041c:	0007879b          	sext.w	a5,a5
    80000420:	0027979b          	slliw	a5,a5,0x2
    80000424:	fef42623          	sw	a5,-20(s0)
    80000428:	0380006f          	j	80000460 <print_hex+0x68>
    8000042c:	fec42783          	lw	a5,-20(s0)
    80000430:	fd843703          	ld	a4,-40(s0)
    80000434:	00f757b3          	srl	a5,a4,a5
    80000438:	00f7f793          	andi	a5,a5,15
    8000043c:	00001717          	auipc	a4,0x1
    80000440:	e0470713          	addi	a4,a4,-508 # 80001240 <__clzdi2+0xf4>
    80000444:	00f707b3          	add	a5,a4,a5
    80000448:	0007c783          	lbu	a5,0(a5)
    8000044c:	00078513          	mv	a0,a5
    80000450:	dcdff0ef          	jal	ra,8000021c <htif_console_putchar>
    80000454:	fec42783          	lw	a5,-20(s0)
    80000458:	ffc7879b          	addiw	a5,a5,-4
    8000045c:	fef42623          	sw	a5,-20(s0)
    80000460:	fec42783          	lw	a5,-20(s0)
    80000464:	0007879b          	sext.w	a5,a5
    80000468:	fc07d2e3          	bgez	a5,8000042c <print_hex+0x34>
    8000046c:	00000013          	nop
    80000470:	02813083          	ld	ra,40(sp)
    80000474:	02013403          	ld	s0,32(sp)
    80000478:	03010113          	addi	sp,sp,48
    8000047c:	00008067          	ret

Disassembly of section .text:

0000000080000480 <trap_entry>:
    80000480:	f0010113          	addi	sp,sp,-256
    80000484:	00113423          	sd	ra,8(sp)
    80000488:	00213823          	sd	sp,16(sp)
    8000048c:	00313c23          	sd	gp,24(sp)
    80000490:	02413023          	sd	tp,32(sp)
    80000494:	02513423          	sd	t0,40(sp)
    80000498:	02613823          	sd	t1,48(sp)
    8000049c:	02713c23          	sd	t2,56(sp)
    800004a0:	04813023          	sd	s0,64(sp)
    800004a4:	04913423          	sd	s1,72(sp)
    800004a8:	04a13823          	sd	a0,80(sp)
    800004ac:	04b13c23          	sd	a1,88(sp)
    800004b0:	06c13023          	sd	a2,96(sp)
    800004b4:	06d13423          	sd	a3,104(sp)
    800004b8:	06e13823          	sd	a4,112(sp)
    800004bc:	06f13c23          	sd	a5,120(sp)
    800004c0:	09013023          	sd	a6,128(sp)
    800004c4:	09113423          	sd	a7,136(sp)
    800004c8:	09213823          	sd	s2,144(sp)
    800004cc:	09313c23          	sd	s3,152(sp)
    800004d0:	0b413023          	sd	s4,160(sp)
    800004d4:	0b513423          	sd	s5,168(sp)
    800004d8:	0b613823          	sd	s6,176(sp)
    800004dc:	0b713c23          	sd	s7,184(sp)
    800004e0:	0d813023          	sd	s8,192(sp)
    800004e4:	0d913423          	sd	s9,200(sp)
    800004e8:	0da13823          	sd	s10,208(sp)
    800004ec:	0db13c23          	sd	s11,216(sp)
    800004f0:	0fc13023          	sd	t3,224(sp)
    800004f4:	0fd13423          	sd	t4,232(sp)
    800004f8:	0fe13823          	sd	t5,240(sp)
    800004fc:	0ff13c23          	sd	t6,248(sp)
    80000500:	34202573          	csrr	a0,mcause
    80000504:	341025f3          	csrr	a1,mepc
    80000508:	00010613          	mv	a2,sp
    8000050c:	0f4000ef          	jal	ra,80000600 <handle_trap>
    80000510:	34151073          	csrw	mepc,a0
    80000514:	000022b7          	lui	t0,0x2
    80000518:	8002829b          	addiw	t0,t0,-2048
    8000051c:	3002a073          	csrs	mstatus,t0
    80000520:	00813083          	ld	ra,8(sp)
    80000524:	01013103          	ld	sp,16(sp)
    80000528:	01813183          	ld	gp,24(sp)
    8000052c:	02013203          	ld	tp,32(sp)
    80000530:	02813283          	ld	t0,40(sp)
    80000534:	03013303          	ld	t1,48(sp)
    80000538:	03813383          	ld	t2,56(sp)
    8000053c:	04013403          	ld	s0,64(sp)
    80000540:	04813483          	ld	s1,72(sp)
    80000544:	05013503          	ld	a0,80(sp)
    80000548:	05813583          	ld	a1,88(sp)
    8000054c:	06013603          	ld	a2,96(sp)
    80000550:	06813683          	ld	a3,104(sp)
    80000554:	07013703          	ld	a4,112(sp)
    80000558:	07813783          	ld	a5,120(sp)
    8000055c:	08013803          	ld	a6,128(sp)
    80000560:	08813883          	ld	a7,136(sp)
    80000564:	09013903          	ld	s2,144(sp)
    80000568:	09813983          	ld	s3,152(sp)
    8000056c:	0a013a03          	ld	s4,160(sp)
    80000570:	0a813a83          	ld	s5,168(sp)
    80000574:	0b013b03          	ld	s6,176(sp)
    80000578:	0b813b83          	ld	s7,184(sp)
    8000057c:	0c013c03          	ld	s8,192(sp)
    80000580:	0c813c83          	ld	s9,200(sp)
    80000584:	0d013d03          	ld	s10,208(sp)
    80000588:	0d813d83          	ld	s11,216(sp)
    8000058c:	0e013e03          	ld	t3,224(sp)
    80000590:	0e813e83          	ld	t4,232(sp)
    80000594:	0f013f03          	ld	t5,240(sp)
    80000598:	0f813f83          	ld	t6,248(sp)
    8000059c:	10010113          	addi	sp,sp,256
    800005a0:	30200073          	mret
    800005a4:	0000006f          	j	800005a4 <trap_entry+0x124>

00000000800005a8 <function1>:
    800005a8:	0005650b          	0x5650b

00000000800005ac <mtime_lo>:
    800005ac:	ff010113          	addi	sp,sp,-16
    800005b0:	00813423          	sd	s0,8(sp)
    800005b4:	01010413          	addi	s0,sp,16
    800005b8:	0200c7b7          	lui	a5,0x200c
    800005bc:	ff878793          	addi	a5,a5,-8 # 200bff8 <__stack_size+0x200b7f8>
    800005c0:	0007b783          	ld	a5,0(a5)
    800005c4:	00078513          	mv	a0,a5
    800005c8:	00813403          	ld	s0,8(sp)
    800005cc:	01010113          	addi	sp,sp,16
    800005d0:	00008067          	ret

00000000800005d4 <get_timer_value>:
    800005d4:	ff010113          	addi	sp,sp,-16
    800005d8:	00113423          	sd	ra,8(sp)
    800005dc:	00813023          	sd	s0,0(sp)
    800005e0:	01010413          	addi	s0,sp,16
    800005e4:	fc9ff0ef          	jal	ra,800005ac <mtime_lo>
    800005e8:	00050793          	mv	a5,a0
    800005ec:	00078513          	mv	a0,a5
    800005f0:	00813083          	ld	ra,8(sp)
    800005f4:	00013403          	ld	s0,0(sp)
    800005f8:	01010113          	addi	sp,sp,16
    800005fc:	00008067          	ret

0000000080000600 <handle_trap>:
    80000600:	fe010113          	addi	sp,sp,-32
    80000604:	00113c23          	sd	ra,24(sp)
    80000608:	00813823          	sd	s0,16(sp)
    8000060c:	02010413          	addi	s0,sp,32
    80000610:	fea43423          	sd	a0,-24(s0)
    80000614:	feb43023          	sd	a1,-32(s0)
    80000618:	00001517          	auipc	a0,0x1
    8000061c:	b7050513          	addi	a0,a0,-1168 # 80001188 <__clzdi2+0x3c>
    80000620:	ccdff0ef          	jal	ra,800002ec <print_str>
    80000624:	00800593          	li	a1,8
    80000628:	fe843503          	ld	a0,-24(s0)
    8000062c:	dcdff0ef          	jal	ra,800003f8 <print_hex>
    80000630:	00001517          	auipc	a0,0x1
    80000634:	b7050513          	addi	a0,a0,-1168 # 800011a0 <__clzdi2+0x54>
    80000638:	cb5ff0ef          	jal	ra,800002ec <print_str>
    8000063c:	00800593          	li	a1,8
    80000640:	fe043503          	ld	a0,-32(s0)
    80000644:	db5ff0ef          	jal	ra,800003f8 <print_hex>
    80000648:	00001517          	auipc	a0,0x1
    8000064c:	b6050513          	addi	a0,a0,-1184 # 800011a8 <__clzdi2+0x5c>
    80000650:	c9dff0ef          	jal	ra,800002ec <print_str>
    80000654:	c21ff0ef          	jal	ra,80000274 <htif_poweroff>

0000000080000658 <_init>:
    80000658:	fe010113          	addi	sp,sp,-32
    8000065c:	00813c23          	sd	s0,24(sp)
    80000660:	02010413          	addi	s0,sp,32
    80000664:	00000797          	auipc	a5,0x0
    80000668:	e1c78793          	addi	a5,a5,-484 # 80000480 <trap_entry>
    8000066c:	30579073          	csrw	mtvec,a5
    80000670:	301027f3          	csrr	a5,misa
    80000674:	fef43423          	sd	a5,-24(s0)
    80000678:	fe843783          	ld	a5,-24(s0)
    8000067c:	0207f793          	andi	a5,a5,32
    80000680:	00078a63          	beqz	a5,80000694 <_init+0x3c>
    80000684:	0001e7b7          	lui	a5,0x1e
    80000688:	30079073          	csrw	mstatus,a5
    8000068c:	00305073          	csrwi	fcsr,0
    80000690:	00c0006f          	j	8000069c <_init+0x44>
    80000694:	000187b7          	lui	a5,0x18
    80000698:	30079073          	csrw	mstatus,a5
    8000069c:	00000013          	nop
    800006a0:	01813403          	ld	s0,24(sp)
    800006a4:	02010113          	addi	sp,sp,32
    800006a8:	00008067          	ret

00000000800006ac <_fini>:
    800006ac:	ff010113          	addi	sp,sp,-16
    800006b0:	00813423          	sd	s0,8(sp)
    800006b4:	01010413          	addi	s0,sp,16
    800006b8:	00000013          	nop
    800006bc:	00813403          	ld	s0,8(sp)
    800006c0:	01010113          	addi	sp,sp,16
    800006c4:	00008067          	ret

00000000800006c8 <main>:
    800006c8:	f6010113          	addi	sp,sp,-160
    800006cc:	08113c23          	sd	ra,152(sp)
    800006d0:	08813823          	sd	s0,144(sp)
    800006d4:	08913423          	sd	s1,136(sp)
    800006d8:	0a010413          	addi	s0,sp,160
    800006dc:	00050793          	mv	a5,a0
    800006e0:	00058713          	mv	a4,a1
    800006e4:	f6f42623          	sw	a5,-148(s0)
    800006e8:	00070793          	mv	a5,a4
    800006ec:	f6f42423          	sw	a5,-152(s0)
    800006f0:	00001797          	auipc	a5,0x1
    800006f4:	b3078793          	addi	a5,a5,-1232 # 80001220 <__clzdi2+0xd4>
    800006f8:	0007b783          	ld	a5,0(a5)
    800006fc:	f8f43823          	sd	a5,-112(s0)
    80000700:	00001797          	auipc	a5,0x1
    80000704:	b2878793          	addi	a5,a5,-1240 # 80001228 <__clzdi2+0xdc>
    80000708:	0007b783          	ld	a5,0(a5)
    8000070c:	f8f43c23          	sd	a5,-104(s0)
    80000710:	00001797          	auipc	a5,0x1
    80000714:	b2078793          	addi	a5,a5,-1248 # 80001230 <__clzdi2+0xe4>
    80000718:	0007a783          	lw	a5,0(a5)
    8000071c:	fcf42e23          	sw	a5,-36(s0)
    80000720:	00001797          	auipc	a5,0x1
    80000724:	b1478793          	addi	a5,a5,-1260 # 80001234 <__clzdi2+0xe8>
    80000728:	0007a783          	lw	a5,0(a5)
    8000072c:	fcf42c23          	sw	a5,-40(s0)
    80000730:	00001797          	auipc	a5,0x1
    80000734:	b0878793          	addi	a5,a5,-1272 # 80001238 <__clzdi2+0xec>
    80000738:	0007a783          	lw	a5,0(a5)
    8000073c:	fcf42a23          	sw	a5,-44(s0)
    80000740:	00001797          	auipc	a5,0x1
    80000744:	afc78793          	addi	a5,a5,-1284 # 8000123c <__clzdi2+0xf0>
    80000748:	0007a783          	lw	a5,0(a5)
    8000074c:	fcf42823          	sw	a5,-48(s0)
    80000750:	b00027f3          	csrr	a5,mcycle
    80000754:	fcf43423          	sd	a5,-56(s0)
    80000758:	fc843783          	ld	a5,-56(s0)
    8000075c:	fcf43023          	sd	a5,-64(s0)
    80000760:	fd842583          	lw	a1,-40(s0)
    80000764:	fdc42503          	lw	a0,-36(s0)
    80000768:	6f8000ef          	jal	ra,80000e60 <__mulsf3>
    8000076c:	00050793          	mv	a5,a0
    80000770:	00078493          	mv	s1,a5
    80000774:	fd042583          	lw	a1,-48(s0)
    80000778:	fd442503          	lw	a0,-44(s0)
    8000077c:	6e4000ef          	jal	ra,80000e60 <__mulsf3>
    80000780:	00050793          	mv	a5,a0
    80000784:	00078593          	mv	a1,a5
    80000788:	00048513          	mv	a0,s1
    8000078c:	27c000ef          	jal	ra,80000a08 <__addsf3>
    80000790:	00050793          	mv	a5,a0
    80000794:	f8f42623          	sw	a5,-116(s0)
    80000798:	b00027f3          	csrr	a5,mcycle
    8000079c:	faf43c23          	sd	a5,-72(s0)
    800007a0:	fb843783          	ld	a5,-72(s0)
    800007a4:	faf43823          	sd	a5,-80(s0)
    800007a8:	fb043703          	ld	a4,-80(s0)
    800007ac:	fc043783          	ld	a5,-64(s0)
    800007b0:	40f707b3          	sub	a5,a4,a5
    800007b4:	f6f43c23          	sd	a5,-136(s0)
    800007b8:	00001517          	auipc	a0,0x1
    800007bc:	a0050513          	addi	a0,a0,-1536 # 800011b8 <__clzdi2+0x6c>
    800007c0:	b2dff0ef          	jal	ra,800002ec <print_str>
    800007c4:	f8c40793          	addi	a5,s0,-116
    800007c8:	0007a783          	lw	a5,0(a5)
    800007cc:	00800593          	li	a1,8
    800007d0:	00078513          	mv	a0,a5
    800007d4:	c25ff0ef          	jal	ra,800003f8 <print_hex>
    800007d8:	00001517          	auipc	a0,0x1
    800007dc:	9f850513          	addi	a0,a0,-1544 # 800011d0 <__clzdi2+0x84>
    800007e0:	b0dff0ef          	jal	ra,800002ec <print_str>
    800007e4:	00001517          	auipc	a0,0x1
    800007e8:	9f450513          	addi	a0,a0,-1548 # 800011d8 <__clzdi2+0x8c>
    800007ec:	b01ff0ef          	jal	ra,800002ec <print_str>
    800007f0:	f7840793          	addi	a5,s0,-136
    800007f4:	0007b783          	ld	a5,0(a5)
    800007f8:	01000593          	li	a1,16
    800007fc:	00078513          	mv	a0,a5
    80000800:	bf9ff0ef          	jal	ra,800003f8 <print_hex>
    80000804:	00001517          	auipc	a0,0x1
    80000808:	9cc50513          	addi	a0,a0,-1588 # 800011d0 <__clzdi2+0x84>
    8000080c:	ae1ff0ef          	jal	ra,800002ec <print_str>
    80000810:	b00027f3          	csrr	a5,mcycle
    80000814:	faf43423          	sd	a5,-88(s0)
    80000818:	fa843783          	ld	a5,-88(s0)
    8000081c:	fcf43023          	sd	a5,-64(s0)
    80000820:	f9043783          	ld	a5,-112(s0)
    80000824:	00078593          	mv	a1,a5
    80000828:	f9843783          	ld	a5,-104(s0)
    8000082c:	00078613          	mv	a2,a5
    80000830:	04c5f50b          	0x4c5f50b
    80000834:	00050793          	mv	a5,a0
    80000838:	f8f43023          	sd	a5,-128(s0)
    8000083c:	b00027f3          	csrr	a5,mcycle
    80000840:	faf43023          	sd	a5,-96(s0)
    80000844:	fa043783          	ld	a5,-96(s0)
    80000848:	faf43823          	sd	a5,-80(s0)
    8000084c:	fb043703          	ld	a4,-80(s0)
    80000850:	fc043783          	ld	a5,-64(s0)
    80000854:	40f707b3          	sub	a5,a4,a5
    80000858:	f6f43c23          	sd	a5,-136(s0)
    8000085c:	f9043783          	ld	a5,-112(s0)
    80000860:	00078593          	mv	a1,a5
    80000864:	f9843783          	ld	a5,-104(s0)
    80000868:	00078613          	mv	a2,a5
    8000086c:	04c5f50b          	0x4c5f50b
    80000870:	00050793          	mv	a5,a0
    80000874:	f8f43023          	sd	a5,-128(s0)
    80000878:	00001517          	auipc	a0,0x1
    8000087c:	97050513          	addi	a0,a0,-1680 # 800011e8 <__clzdi2+0x9c>
    80000880:	a6dff0ef          	jal	ra,800002ec <print_str>
    80000884:	f8043783          	ld	a5,-128(s0)
    80000888:	01000593          	li	a1,16
    8000088c:	00078513          	mv	a0,a5
    80000890:	b69ff0ef          	jal	ra,800003f8 <print_hex>
    80000894:	00001517          	auipc	a0,0x1
    80000898:	93c50513          	addi	a0,a0,-1732 # 800011d0 <__clzdi2+0x84>
    8000089c:	a51ff0ef          	jal	ra,800002ec <print_str>
    800008a0:	00001517          	auipc	a0,0x1
    800008a4:	96850513          	addi	a0,a0,-1688 # 80001208 <__clzdi2+0xbc>
    800008a8:	a45ff0ef          	jal	ra,800002ec <print_str>
    800008ac:	f7840793          	addi	a5,s0,-136
    800008b0:	0007b783          	ld	a5,0(a5)
    800008b4:	01000593          	li	a1,16
    800008b8:	00078513          	mv	a0,a5
    800008bc:	b3dff0ef          	jal	ra,800003f8 <print_hex>
    800008c0:	00001517          	auipc	a0,0x1
    800008c4:	91050513          	addi	a0,a0,-1776 # 800011d0 <__clzdi2+0x84>
    800008c8:	a25ff0ef          	jal	ra,800002ec <print_str>
    800008cc:	9a9ff0ef          	jal	ra,80000274 <htif_poweroff>

00000000800008d0 <spinlock_trylock>:
    800008d0:	fd010113          	addi	sp,sp,-48
    800008d4:	02813423          	sd	s0,40(sp)
    800008d8:	03010413          	addi	s0,sp,48
    800008dc:	fca43c23          	sd	a0,-40(s0)
    800008e0:	fd843783          	ld	a5,-40(s0)
    800008e4:	fff00713          	li	a4,-1
    800008e8:	0ce7a72f          	amoswap.w.aq	a4,a4,(a5)
    800008ec:	00070693          	mv	a3,a4
    800008f0:	0006879b          	sext.w	a5,a3
    800008f4:	fef42623          	sw	a5,-20(s0)
    800008f8:	0ff0000f          	fence
    800008fc:	fec42783          	lw	a5,-20(s0)
    80000900:	00078513          	mv	a0,a5
    80000904:	02813403          	ld	s0,40(sp)
    80000908:	03010113          	addi	sp,sp,48
    8000090c:	00008067          	ret

0000000080000910 <spinlock_lock>:
    80000910:	fe010113          	addi	sp,sp,-32
    80000914:	00113c23          	sd	ra,24(sp)
    80000918:	00813823          	sd	s0,16(sp)
    8000091c:	02010413          	addi	s0,sp,32
    80000920:	fea43423          	sd	a0,-24(s0)
    80000924:	00000013          	nop
    80000928:	fe843783          	ld	a5,-24(s0)
    8000092c:	0007a783          	lw	a5,0(a5)
    80000930:	0007879b          	sext.w	a5,a5
    80000934:	fe079ae3          	bnez	a5,80000928 <spinlock_lock+0x18>
    80000938:	fe843503          	ld	a0,-24(s0)
    8000093c:	f95ff0ef          	jal	ra,800008d0 <spinlock_trylock>
    80000940:	00050793          	mv	a5,a0
    80000944:	fe0790e3          	bnez	a5,80000924 <spinlock_lock+0x14>
    80000948:	00000013          	nop
    8000094c:	01813083          	ld	ra,24(sp)
    80000950:	01013403          	ld	s0,16(sp)
    80000954:	02010113          	addi	sp,sp,32
    80000958:	00008067          	ret

000000008000095c <spinlock_unlock>:
    8000095c:	fe010113          	addi	sp,sp,-32
    80000960:	00813c23          	sd	s0,24(sp)
    80000964:	02010413          	addi	s0,sp,32
    80000968:	fea43423          	sd	a0,-24(s0)
    8000096c:	0ff0000f          	fence
    80000970:	fe843783          	ld	a5,-24(s0)
    80000974:	0007a023          	sw	zero,0(a5)
    80000978:	00000013          	nop
    8000097c:	01813403          	ld	s0,24(sp)
    80000980:	02010113          	addi	sp,sp,32
    80000984:	00008067          	ret

0000000080000988 <htif_console_getchar>:
    80000988:	fe010113          	addi	sp,sp,-32
    8000098c:	00113c23          	sd	ra,24(sp)
    80000990:	00813823          	sd	s0,16(sp)
    80000994:	02010413          	addi	s0,sp,32
    80000998:	00001517          	auipc	a0,0x1
    8000099c:	a4050513          	addi	a0,a0,-1472 # 800013d8 <htif_lock>
    800009a0:	f71ff0ef          	jal	ra,80000910 <spinlock_lock>
    800009a4:	e88ff0ef          	jal	ra,8000002c <__check_fromhost>
    800009a8:	82018793          	addi	a5,gp,-2016 # 800013e8 <htif_console_buf>
    800009ac:	0007a783          	lw	a5,0(a5)
    800009b0:	fef42623          	sw	a5,-20(s0)
    800009b4:	fec42783          	lw	a5,-20(s0)
    800009b8:	0007879b          	sext.w	a5,a5
    800009bc:	0207c063          	bltz	a5,800009dc <htif_console_getchar+0x54>
    800009c0:	82018793          	addi	a5,gp,-2016 # 800013e8 <htif_console_buf>
    800009c4:	fff00713          	li	a4,-1
    800009c8:	00e7a023          	sw	a4,0(a5)
    800009cc:	00000613          	li	a2,0
    800009d0:	00000593          	li	a1,0
    800009d4:	00100513          	li	a0,1
    800009d8:	ef0ff0ef          	jal	ra,800000c8 <__set_tohost>
    800009dc:	00001517          	auipc	a0,0x1
    800009e0:	9fc50513          	addi	a0,a0,-1540 # 800013d8 <htif_lock>
    800009e4:	f79ff0ef          	jal	ra,8000095c <spinlock_unlock>
    800009e8:	fec42783          	lw	a5,-20(s0)
    800009ec:	fff7879b          	addiw	a5,a5,-1
    800009f0:	0007879b          	sext.w	a5,a5
    800009f4:	00078513          	mv	a0,a5
    800009f8:	01813083          	ld	ra,24(sp)
    800009fc:	01013403          	ld	s0,16(sp)
    80000a00:	02010113          	addi	sp,sp,32
    80000a04:	00008067          	ret

0000000080000a08 <__addsf3>:
    80000a08:	00800737          	lui	a4,0x800
    80000a0c:	fe010113          	addi	sp,sp,-32
    80000a10:	fff70713          	addi	a4,a4,-1 # 7fffff <__stack_size+0x7ff7ff>
    80000a14:	00a777b3          	and	a5,a4,a0
    80000a18:	00813823          	sd	s0,16(sp)
    80000a1c:	00b77733          	and	a4,a4,a1
    80000a20:	0175541b          	srliw	s0,a0,0x17
    80000a24:	01213023          	sd	s2,0(sp)
    80000a28:	01f5591b          	srliw	s2,a0,0x1f
    80000a2c:	0175d51b          	srliw	a0,a1,0x17
    80000a30:	02079793          	slli	a5,a5,0x20
    80000a34:	0ff47413          	andi	s0,s0,255
    80000a38:	02071713          	slli	a4,a4,0x20
    80000a3c:	0ff57513          	andi	a0,a0,255
    80000a40:	0207d793          	srli	a5,a5,0x20
    80000a44:	02075713          	srli	a4,a4,0x20
    80000a48:	40a406bb          	subw	a3,s0,a0
    80000a4c:	00113c23          	sd	ra,24(sp)
    80000a50:	00913423          	sd	s1,8(sp)
    80000a54:	01f5d59b          	srliw	a1,a1,0x1f
    80000a58:	00379793          	slli	a5,a5,0x3
    80000a5c:	00371713          	slli	a4,a4,0x3
    80000a60:	0006861b          	sext.w	a2,a3
    80000a64:	18b91463          	bne	s2,a1,80000bec <__addsf3+0x1e4>
    80000a68:	08c05c63          	blez	a2,80000b00 <__addsf3+0xf8>
    80000a6c:	04051c63          	bnez	a0,80000ac4 <__addsf3+0xbc>
    80000a70:	34070663          	beqz	a4,80000dbc <__addsf3+0x3b4>
    80000a74:	fff6861b          	addiw	a2,a3,-1
    80000a78:	02061e63          	bnez	a2,80000ab4 <__addsf3+0xac>
    80000a7c:	00e787b3          	add	a5,a5,a4
    80000a80:	00040513          	mv	a0,s0
    80000a84:	02579713          	slli	a4,a5,0x25
    80000a88:	10075c63          	bgez	a4,80000ba0 <__addsf3+0x198>
    80000a8c:	00150513          	addi	a0,a0,1
    80000a90:	0ff00713          	li	a4,255
    80000a94:	32e50e63          	beq	a0,a4,80000dd0 <__addsf3+0x3c8>
    80000a98:	fc000737          	lui	a4,0xfc000
    80000a9c:	fff70713          	addi	a4,a4,-1 # fffffffffbffffff <_sp+0xffffffff7bffdfff>
    80000aa0:	0017f693          	andi	a3,a5,1
    80000aa4:	00f777b3          	and	a5,a4,a5
    80000aa8:	0017d793          	srli	a5,a5,0x1
    80000aac:	00d7e7b3          	or	a5,a5,a3
    80000ab0:	0f00006f          	j	80000ba0 <__addsf3+0x198>
    80000ab4:	0ff00693          	li	a3,255
    80000ab8:	00d41e63          	bne	s0,a3,80000ad4 <__addsf3+0xcc>
    80000abc:	0ff00513          	li	a0,255
    80000ac0:	0e00006f          	j	80000ba0 <__addsf3+0x198>
    80000ac4:	0ff00693          	li	a3,255
    80000ac8:	fed40ae3          	beq	s0,a3,80000abc <__addsf3+0xb4>
    80000acc:	040006b7          	lui	a3,0x4000
    80000ad0:	00d76733          	or	a4,a4,a3
    80000ad4:	01b00693          	li	a3,27
    80000ad8:	00c6d663          	bge	a3,a2,80000ae4 <__addsf3+0xdc>
    80000adc:	00100713          	li	a4,1
    80000ae0:	f9dff06f          	j	80000a7c <__addsf3+0x74>
    80000ae4:	04000693          	li	a3,64
    80000ae8:	00c755b3          	srl	a1,a4,a2
    80000aec:	40c6863b          	subw	a2,a3,a2
    80000af0:	00c71733          	sll	a4,a4,a2
    80000af4:	00e03733          	snez	a4,a4
    80000af8:	00e5e733          	or	a4,a1,a4
    80000afc:	f81ff06f          	j	80000a7c <__addsf3+0x74>
    80000b00:	06060663          	beqz	a2,80000b6c <__addsf3+0x164>
    80000b04:	02041463          	bnez	s0,80000b2c <__addsf3+0x124>
    80000b08:	00078e63          	beqz	a5,80000b24 <__addsf3+0x11c>
    80000b0c:	fff00593          	li	a1,-1
    80000b10:	00b61663          	bne	a2,a1,80000b1c <__addsf3+0x114>
    80000b14:	00e787b3          	add	a5,a5,a4
    80000b18:	f6dff06f          	j	80000a84 <__addsf3+0x7c>
    80000b1c:	0ff00613          	li	a2,255
    80000b20:	32c51463          	bne	a0,a2,80000e48 <__addsf3+0x440>
    80000b24:	00070793          	mv	a5,a4
    80000b28:	0780006f          	j	80000ba0 <__addsf3+0x198>
    80000b2c:	0ff00613          	li	a2,255
    80000b30:	fec50ae3          	beq	a0,a2,80000b24 <__addsf3+0x11c>
    80000b34:	04000637          	lui	a2,0x4000
    80000b38:	40d006bb          	negw	a3,a3
    80000b3c:	00c7e7b3          	or	a5,a5,a2
    80000b40:	01b00613          	li	a2,27
    80000b44:	00d65663          	bge	a2,a3,80000b50 <__addsf3+0x148>
    80000b48:	00100793          	li	a5,1
    80000b4c:	fc9ff06f          	j	80000b14 <__addsf3+0x10c>
    80000b50:	04000613          	li	a2,64
    80000b54:	00d7d5b3          	srl	a1,a5,a3
    80000b58:	40d606bb          	subw	a3,a2,a3
    80000b5c:	00d797b3          	sll	a5,a5,a3
    80000b60:	00f037b3          	snez	a5,a5
    80000b64:	00f5e7b3          	or	a5,a1,a5
    80000b68:	fadff06f          	j	80000b14 <__addsf3+0x10c>
    80000b6c:	00140693          	addi	a3,s0,1
    80000b70:	0fe6f513          	andi	a0,a3,254
    80000b74:	06051063          	bnez	a0,80000bd4 <__addsf3+0x1cc>
    80000b78:	04041263          	bnez	s0,80000bbc <__addsf3+0x1b4>
    80000b7c:	fa0784e3          	beqz	a5,80000b24 <__addsf3+0x11c>
    80000b80:	02070063          	beqz	a4,80000ba0 <__addsf3+0x198>
    80000b84:	00e787b3          	add	a5,a5,a4
    80000b88:	02579713          	slli	a4,a5,0x25
    80000b8c:	00075a63          	bgez	a4,80000ba0 <__addsf3+0x198>
    80000b90:	fc000737          	lui	a4,0xfc000
    80000b94:	fff70713          	addi	a4,a4,-1 # fffffffffbffffff <_sp+0xffffffff7bffdfff>
    80000b98:	00e7f7b3          	and	a5,a5,a4
    80000b9c:	00100513          	li	a0,1
    80000ba0:	0077f713          	andi	a4,a5,7
    80000ba4:	22070863          	beqz	a4,80000dd4 <__addsf3+0x3cc>
    80000ba8:	00f7f713          	andi	a4,a5,15
    80000bac:	00400693          	li	a3,4
    80000bb0:	22d70263          	beq	a4,a3,80000dd4 <__addsf3+0x3cc>
    80000bb4:	00478793          	addi	a5,a5,4
    80000bb8:	21c0006f          	j	80000dd4 <__addsf3+0x3cc>
    80000bbc:	20078463          	beqz	a5,80000dc4 <__addsf3+0x3bc>
    80000bc0:	ee070ee3          	beqz	a4,80000abc <__addsf3+0xb4>
    80000bc4:	00000913          	li	s2,0
    80000bc8:	020007b7          	lui	a5,0x2000
    80000bcc:	0ff00513          	li	a0,255
    80000bd0:	2040006f          	j	80000dd4 <__addsf3+0x3cc>
    80000bd4:	0ff00613          	li	a2,255
    80000bd8:	1ec68a63          	beq	a3,a2,80000dcc <__addsf3+0x3c4>
    80000bdc:	00e787b3          	add	a5,a5,a4
    80000be0:	0017d793          	srli	a5,a5,0x1
    80000be4:	00068513          	mv	a0,a3
    80000be8:	fb9ff06f          	j	80000ba0 <__addsf3+0x198>
    80000bec:	08c05863          	blez	a2,80000c7c <__addsf3+0x274>
    80000bf0:	04051863          	bnez	a0,80000c40 <__addsf3+0x238>
    80000bf4:	00040513          	mv	a0,s0
    80000bf8:	fa0704e3          	beqz	a4,80000ba0 <__addsf3+0x198>
    80000bfc:	fff6861b          	addiw	a2,a3,-1
    80000c00:	02061263          	bnez	a2,80000c24 <__addsf3+0x21c>
    80000c04:	40e787b3          	sub	a5,a5,a4
    80000c08:	02579713          	slli	a4,a5,0x25
    80000c0c:	f8075ae3          	bgez	a4,80000ba0 <__addsf3+0x198>
    80000c10:	040004b7          	lui	s1,0x4000
    80000c14:	fff48493          	addi	s1,s1,-1 # 3ffffff <__stack_size+0x3fff7ff>
    80000c18:	0097f4b3          	and	s1,a5,s1
    80000c1c:	00050413          	mv	s0,a0
    80000c20:	13c0006f          	j	80000d5c <__addsf3+0x354>
    80000c24:	0ff00693          	li	a3,255
    80000c28:	0ff00513          	li	a0,255
    80000c2c:	f6d40ae3          	beq	s0,a3,80000ba0 <__addsf3+0x198>
    80000c30:	01b00693          	li	a3,27
    80000c34:	02c6d263          	bge	a3,a2,80000c58 <__addsf3+0x250>
    80000c38:	00100713          	li	a4,1
    80000c3c:	0340006f          	j	80000c70 <__addsf3+0x268>
    80000c40:	0ff00693          	li	a3,255
    80000c44:	0ff00513          	li	a0,255
    80000c48:	f4d40ce3          	beq	s0,a3,80000ba0 <__addsf3+0x198>
    80000c4c:	040006b7          	lui	a3,0x4000
    80000c50:	00d76733          	or	a4,a4,a3
    80000c54:	fddff06f          	j	80000c30 <__addsf3+0x228>
    80000c58:	04000693          	li	a3,64
    80000c5c:	00c755b3          	srl	a1,a4,a2
    80000c60:	40c6863b          	subw	a2,a3,a2
    80000c64:	00c71733          	sll	a4,a4,a2
    80000c68:	00e03733          	snez	a4,a4
    80000c6c:	00e5e733          	or	a4,a1,a4
    80000c70:	40e787b3          	sub	a5,a5,a4
    80000c74:	00040513          	mv	a0,s0
    80000c78:	f91ff06f          	j	80000c08 <__addsf3+0x200>
    80000c7c:	06060a63          	beqz	a2,80000cf0 <__addsf3+0x2e8>
    80000c80:	02041863          	bnez	s0,80000cb0 <__addsf3+0x2a8>
    80000c84:	02078063          	beqz	a5,80000ca4 <__addsf3+0x29c>
    80000c88:	fff00813          	li	a6,-1
    80000c8c:	01061863          	bne	a2,a6,80000c9c <__addsf3+0x294>
    80000c90:	40f707b3          	sub	a5,a4,a5
    80000c94:	00058913          	mv	s2,a1
    80000c98:	f71ff06f          	j	80000c08 <__addsf3+0x200>
    80000c9c:	0ff00613          	li	a2,255
    80000ca0:	1ac51a63          	bne	a0,a2,80000e54 <__addsf3+0x44c>
    80000ca4:	00070793          	mv	a5,a4
    80000ca8:	00058913          	mv	s2,a1
    80000cac:	ef5ff06f          	j	80000ba0 <__addsf3+0x198>
    80000cb0:	0ff00613          	li	a2,255
    80000cb4:	fec508e3          	beq	a0,a2,80000ca4 <__addsf3+0x29c>
    80000cb8:	04000637          	lui	a2,0x4000
    80000cbc:	40d006bb          	negw	a3,a3
    80000cc0:	00c7e7b3          	or	a5,a5,a2
    80000cc4:	01b00613          	li	a2,27
    80000cc8:	00d65663          	bge	a2,a3,80000cd4 <__addsf3+0x2cc>
    80000ccc:	00100793          	li	a5,1
    80000cd0:	fc1ff06f          	j	80000c90 <__addsf3+0x288>
    80000cd4:	04000613          	li	a2,64
    80000cd8:	00d7d833          	srl	a6,a5,a3
    80000cdc:	40d606bb          	subw	a3,a2,a3
    80000ce0:	00d797b3          	sll	a5,a5,a3
    80000ce4:	00f037b3          	snez	a5,a5
    80000ce8:	00f867b3          	or	a5,a6,a5
    80000cec:	fa5ff06f          	j	80000c90 <__addsf3+0x288>
    80000cf0:	00140513          	addi	a0,s0,1
    80000cf4:	0fe57513          	andi	a0,a0,254
    80000cf8:	04051863          	bnez	a0,80000d48 <__addsf3+0x340>
    80000cfc:	02041c63          	bnez	s0,80000d34 <__addsf3+0x32c>
    80000d00:	00079a63          	bnez	a5,80000d14 <__addsf3+0x30c>
    80000d04:	fa0710e3          	bnez	a4,80000ca4 <__addsf3+0x29c>
    80000d08:	00000793          	li	a5,0
    80000d0c:	00000913          	li	s2,0
    80000d10:	0c40006f          	j	80000dd4 <__addsf3+0x3cc>
    80000d14:	e80706e3          	beqz	a4,80000ba0 <__addsf3+0x198>
    80000d18:	40e786b3          	sub	a3,a5,a4
    80000d1c:	02569613          	slli	a2,a3,0x25
    80000d20:	40f707b3          	sub	a5,a4,a5
    80000d24:	f80642e3          	bltz	a2,80000ca8 <__addsf3+0x2a0>
    80000d28:	fe0680e3          	beqz	a3,80000d08 <__addsf3+0x300>
    80000d2c:	00068793          	mv	a5,a3
    80000d30:	e71ff06f          	j	80000ba0 <__addsf3+0x198>
    80000d34:	e80796e3          	bnez	a5,80000bc0 <__addsf3+0x1b8>
    80000d38:	e80706e3          	beqz	a4,80000bc4 <__addsf3+0x1bc>
    80000d3c:	00070793          	mv	a5,a4
    80000d40:	00058913          	mv	s2,a1
    80000d44:	d79ff06f          	j	80000abc <__addsf3+0xb4>
    80000d48:	40e784b3          	sub	s1,a5,a4
    80000d4c:	02549693          	slli	a3,s1,0x25
    80000d50:	0406d463          	bgez	a3,80000d98 <__addsf3+0x390>
    80000d54:	40f704b3          	sub	s1,a4,a5
    80000d58:	00058913          	mv	s2,a1
    80000d5c:	00048513          	mv	a0,s1
    80000d60:	3ec000ef          	jal	ra,8000114c <__clzdi2>
    80000d64:	fdb5051b          	addiw	a0,a0,-37
    80000d68:	00a494b3          	sll	s1,s1,a0
    80000d6c:	02854e63          	blt	a0,s0,80000da8 <__addsf3+0x3a0>
    80000d70:	4085043b          	subw	s0,a0,s0
    80000d74:	0014041b          	addiw	s0,s0,1
    80000d78:	04000513          	li	a0,64
    80000d7c:	0084d7b3          	srl	a5,s1,s0
    80000d80:	4085043b          	subw	s0,a0,s0
    80000d84:	008494b3          	sll	s1,s1,s0
    80000d88:	009034b3          	snez	s1,s1
    80000d8c:	0097e7b3          	or	a5,a5,s1
    80000d90:	00000513          	li	a0,0
    80000d94:	e0dff06f          	j	80000ba0 <__addsf3+0x198>
    80000d98:	fc0492e3          	bnez	s1,80000d5c <__addsf3+0x354>
    80000d9c:	00000793          	li	a5,0
    80000da0:	00000513          	li	a0,0
    80000da4:	f69ff06f          	j	80000d0c <__addsf3+0x304>
    80000da8:	fc0007b7          	lui	a5,0xfc000
    80000dac:	fff78793          	addi	a5,a5,-1 # fffffffffbffffff <_sp+0xffffffff7bffdfff>
    80000db0:	40a40533          	sub	a0,s0,a0
    80000db4:	00f4f7b3          	and	a5,s1,a5
    80000db8:	de9ff06f          	j	80000ba0 <__addsf3+0x198>
    80000dbc:	00040513          	mv	a0,s0
    80000dc0:	de1ff06f          	j	80000ba0 <__addsf3+0x198>
    80000dc4:	00070793          	mv	a5,a4
    80000dc8:	cf5ff06f          	j	80000abc <__addsf3+0xb4>
    80000dcc:	0ff00513          	li	a0,255
    80000dd0:	00000793          	li	a5,0
    80000dd4:	02579713          	slli	a4,a5,0x25
    80000dd8:	00075e63          	bgez	a4,80000df4 <__addsf3+0x3ec>
    80000ddc:	00150513          	addi	a0,a0,1
    80000de0:	0ff00713          	li	a4,255
    80000de4:	04e50e63          	beq	a0,a4,80000e40 <__addsf3+0x438>
    80000de8:	fc000737          	lui	a4,0xfc000
    80000dec:	fff70713          	addi	a4,a4,-1 # fffffffffbffffff <_sp+0xffffffff7bffdfff>
    80000df0:	00e7f7b3          	and	a5,a5,a4
    80000df4:	0ff00713          	li	a4,255
    80000df8:	0037d793          	srli	a5,a5,0x3
    80000dfc:	00e51863          	bne	a0,a4,80000e0c <__addsf3+0x404>
    80000e00:	00078663          	beqz	a5,80000e0c <__addsf3+0x404>
    80000e04:	004007b7          	lui	a5,0x400
    80000e08:	00000913          	li	s2,0
    80000e0c:	0ff57513          	andi	a0,a0,255
    80000e10:	01813083          	ld	ra,24(sp)
    80000e14:	01013403          	ld	s0,16(sp)
    80000e18:	02979793          	slli	a5,a5,0x29
    80000e1c:	0175171b          	slliw	a4,a0,0x17
    80000e20:	0297d513          	srli	a0,a5,0x29
    80000e24:	01f9191b          	slliw	s2,s2,0x1f
    80000e28:	00e56533          	or	a0,a0,a4
    80000e2c:	01256533          	or	a0,a0,s2
    80000e30:	00813483          	ld	s1,8(sp)
    80000e34:	00013903          	ld	s2,0(sp)
    80000e38:	02010113          	addi	sp,sp,32
    80000e3c:	00008067          	ret
    80000e40:	00000793          	li	a5,0
    80000e44:	fb1ff06f          	j	80000df4 <__addsf3+0x3ec>
    80000e48:	fff6c693          	not	a3,a3
    80000e4c:	0006869b          	sext.w	a3,a3
    80000e50:	cf1ff06f          	j	80000b40 <__addsf3+0x138>
    80000e54:	fff6c693          	not	a3,a3
    80000e58:	0006869b          	sext.w	a3,a3
    80000e5c:	e69ff06f          	j	80000cc4 <__addsf3+0x2bc>

0000000080000e60 <__mulsf3>:
    80000e60:	fb010113          	addi	sp,sp,-80
    80000e64:	02913c23          	sd	s1,56(sp)
    80000e68:	0175549b          	srliw	s1,a0,0x17
    80000e6c:	03213823          	sd	s2,48(sp)
    80000e70:	03313423          	sd	s3,40(sp)
    80000e74:	01613823          	sd	s6,16(sp)
    80000e78:	02951913          	slli	s2,a0,0x29
    80000e7c:	04113423          	sd	ra,72(sp)
    80000e80:	04813023          	sd	s0,64(sp)
    80000e84:	03413023          	sd	s4,32(sp)
    80000e88:	01513c23          	sd	s5,24(sp)
    80000e8c:	01713423          	sd	s7,8(sp)
    80000e90:	0ff4f493          	andi	s1,s1,255
    80000e94:	00058b13          	mv	s6,a1
    80000e98:	02995913          	srli	s2,s2,0x29
    80000e9c:	01f5599b          	srliw	s3,a0,0x1f
    80000ea0:	08048863          	beqz	s1,80000f30 <__mulsf3+0xd0>
    80000ea4:	0ff00793          	li	a5,255
    80000ea8:	0af48663          	beq	s1,a5,80000f54 <__mulsf3+0xf4>
    80000eac:	00391913          	slli	s2,s2,0x3
    80000eb0:	040007b7          	lui	a5,0x4000
    80000eb4:	00f96933          	or	s2,s2,a5
    80000eb8:	f8148493          	addi	s1,s1,-127
    80000ebc:	00000a93          	li	s5,0
    80000ec0:	017b551b          	srliw	a0,s6,0x17
    80000ec4:	029b1413          	slli	s0,s6,0x29
    80000ec8:	0ff57513          	andi	a0,a0,255
    80000ecc:	02945413          	srli	s0,s0,0x29
    80000ed0:	01fb5b1b          	srliw	s6,s6,0x1f
    80000ed4:	0a050063          	beqz	a0,80000f74 <__mulsf3+0x114>
    80000ed8:	0ff00793          	li	a5,255
    80000edc:	0af50e63          	beq	a0,a5,80000f98 <__mulsf3+0x138>
    80000ee0:	00341413          	slli	s0,s0,0x3
    80000ee4:	040005b7          	lui	a1,0x4000
    80000ee8:	00b46433          	or	s0,s0,a1
    80000eec:	f8150513          	addi	a0,a0,-127
    80000ef0:	00000793          	li	a5,0
    80000ef4:	002a9713          	slli	a4,s5,0x2
    80000ef8:	00f76733          	or	a4,a4,a5
    80000efc:	00a484b3          	add	s1,s1,a0
    80000f00:	fff70713          	addi	a4,a4,-1
    80000f04:	00e00693          	li	a3,14
    80000f08:	0169ca33          	xor	s4,s3,s6
    80000f0c:	00148b93          	addi	s7,s1,1
    80000f10:	0ae6e463          	bltu	a3,a4,80000fb8 <__mulsf3+0x158>
    80000f14:	00000697          	auipc	a3,0x0
    80000f18:	34068693          	addi	a3,a3,832 # 80001254 <__clzdi2+0x108>
    80000f1c:	00271713          	slli	a4,a4,0x2
    80000f20:	00d70733          	add	a4,a4,a3
    80000f24:	00072703          	lw	a4,0(a4)
    80000f28:	00d70733          	add	a4,a4,a3
    80000f2c:	00070067          	jr	a4
    80000f30:	02090c63          	beqz	s2,80000f68 <__mulsf3+0x108>
    80000f34:	00090513          	mv	a0,s2
    80000f38:	214000ef          	jal	ra,8000114c <__clzdi2>
    80000f3c:	0005051b          	sext.w	a0,a0
    80000f40:	fdb5079b          	addiw	a5,a0,-37
    80000f44:	faa00493          	li	s1,-86
    80000f48:	00f91933          	sll	s2,s2,a5
    80000f4c:	40a484b3          	sub	s1,s1,a0
    80000f50:	f6dff06f          	j	80000ebc <__mulsf3+0x5c>
    80000f54:	0ff00493          	li	s1,255
    80000f58:	00200a93          	li	s5,2
    80000f5c:	f60902e3          	beqz	s2,80000ec0 <__mulsf3+0x60>
    80000f60:	00300a93          	li	s5,3
    80000f64:	f5dff06f          	j	80000ec0 <__mulsf3+0x60>
    80000f68:	00000493          	li	s1,0
    80000f6c:	00100a93          	li	s5,1
    80000f70:	f51ff06f          	j	80000ec0 <__mulsf3+0x60>
    80000f74:	02040c63          	beqz	s0,80000fac <__mulsf3+0x14c>
    80000f78:	00040513          	mv	a0,s0
    80000f7c:	1d0000ef          	jal	ra,8000114c <__clzdi2>
    80000f80:	0005051b          	sext.w	a0,a0
    80000f84:	fdb5079b          	addiw	a5,a0,-37
    80000f88:	00f41433          	sll	s0,s0,a5
    80000f8c:	faa00793          	li	a5,-86
    80000f90:	40a78533          	sub	a0,a5,a0
    80000f94:	f5dff06f          	j	80000ef0 <__mulsf3+0x90>
    80000f98:	0ff00513          	li	a0,255
    80000f9c:	00200793          	li	a5,2
    80000fa0:	f4040ae3          	beqz	s0,80000ef4 <__mulsf3+0x94>
    80000fa4:	00300793          	li	a5,3
    80000fa8:	f4dff06f          	j	80000ef4 <__mulsf3+0x94>
    80000fac:	00000513          	li	a0,0
    80000fb0:	00100793          	li	a5,1
    80000fb4:	f41ff06f          	j	80000ef4 <__mulsf3+0x94>
    80000fb8:	00040593          	mv	a1,s0
    80000fbc:	00090513          	mv	a0,s2
    80000fc0:	168000ef          	jal	ra,80001128 <__muldi3>
    80000fc4:	01a55413          	srli	s0,a0,0x1a
    80000fc8:	02651513          	slli	a0,a0,0x26
    80000fcc:	00a03533          	snez	a0,a0
    80000fd0:	00a46433          	or	s0,s0,a0
    80000fd4:	02441793          	slli	a5,s0,0x24
    80000fd8:	0807dc63          	bgez	a5,80001070 <__mulsf3+0x210>
    80000fdc:	00145793          	srli	a5,s0,0x1
    80000fe0:	00147413          	andi	s0,s0,1
    80000fe4:	0087e433          	or	s0,a5,s0
    80000fe8:	07fb8793          	addi	a5,s7,127
    80000fec:	08f05663          	blez	a5,80001078 <__mulsf3+0x218>
    80000ff0:	00747713          	andi	a4,s0,7
    80000ff4:	00070a63          	beqz	a4,80001008 <__mulsf3+0x1a8>
    80000ff8:	00f47713          	andi	a4,s0,15
    80000ffc:	00400693          	li	a3,4
    80001000:	00d70463          	beq	a4,a3,80001008 <__mulsf3+0x1a8>
    80001004:	00440413          	addi	s0,s0,4
    80001008:	02441713          	slli	a4,s0,0x24
    8000100c:	00075a63          	bgez	a4,80001020 <__mulsf3+0x1c0>
    80001010:	f80007b7          	lui	a5,0xf8000
    80001014:	fff78793          	addi	a5,a5,-1 # fffffffff7ffffff <_sp+0xffffffff77ffdfff>
    80001018:	00f47433          	and	s0,s0,a5
    8000101c:	080b8793          	addi	a5,s7,128
    80001020:	0fe00713          	li	a4,254
    80001024:	00345413          	srli	s0,s0,0x3
    80001028:	0af75c63          	bge	a4,a5,800010e0 <__mulsf3+0x280>
    8000102c:	00000413          	li	s0,0
    80001030:	0ff00793          	li	a5,255
    80001034:	0ac0006f          	j	800010e0 <__mulsf3+0x280>
    80001038:	00098a13          	mv	s4,s3
    8000103c:	00090413          	mv	s0,s2
    80001040:	000a8793          	mv	a5,s5
    80001044:	00200713          	li	a4,2
    80001048:	fee782e3          	beq	a5,a4,8000102c <__mulsf3+0x1cc>
    8000104c:	00300713          	li	a4,3
    80001050:	08e78263          	beq	a5,a4,800010d4 <__mulsf3+0x274>
    80001054:	00100713          	li	a4,1
    80001058:	f8e798e3          	bne	a5,a4,80000fe8 <__mulsf3+0x188>
    8000105c:	00000413          	li	s0,0
    80001060:	00000793          	li	a5,0
    80001064:	07c0006f          	j	800010e0 <__mulsf3+0x280>
    80001068:	000b0a13          	mv	s4,s6
    8000106c:	fd9ff06f          	j	80001044 <__mulsf3+0x1e4>
    80001070:	00048b93          	mv	s7,s1
    80001074:	f75ff06f          	j	80000fe8 <__mulsf3+0x188>
    80001078:	00100713          	li	a4,1
    8000107c:	40f707b3          	sub	a5,a4,a5
    80001080:	01b00713          	li	a4,27
    80001084:	fcf74ce3          	blt	a4,a5,8000105c <__mulsf3+0x1fc>
    80001088:	0007879b          	sext.w	a5,a5
    8000108c:	04000713          	li	a4,64
    80001090:	00f455b3          	srl	a1,s0,a5
    80001094:	40f707bb          	subw	a5,a4,a5
    80001098:	00f41433          	sll	s0,s0,a5
    8000109c:	00803433          	snez	s0,s0
    800010a0:	0085e433          	or	s0,a1,s0
    800010a4:	00747793          	andi	a5,s0,7
    800010a8:	00078a63          	beqz	a5,800010bc <__mulsf3+0x25c>
    800010ac:	00f47793          	andi	a5,s0,15
    800010b0:	00400713          	li	a4,4
    800010b4:	00e78463          	beq	a5,a4,800010bc <__mulsf3+0x25c>
    800010b8:	00440413          	addi	s0,s0,4
    800010bc:	02541793          	slli	a5,s0,0x25
    800010c0:	00345413          	srli	s0,s0,0x3
    800010c4:	f807dee3          	bgez	a5,80001060 <__mulsf3+0x200>
    800010c8:	00000413          	li	s0,0
    800010cc:	00100793          	li	a5,1
    800010d0:	0100006f          	j	800010e0 <__mulsf3+0x280>
    800010d4:	00400437          	lui	s0,0x400
    800010d8:	0ff00793          	li	a5,255
    800010dc:	00000a13          	li	s4,0
    800010e0:	02941413          	slli	s0,s0,0x29
    800010e4:	0ff7f793          	andi	a5,a5,255
    800010e8:	0177979b          	slliw	a5,a5,0x17
    800010ec:	02945413          	srli	s0,s0,0x29
    800010f0:	01fa151b          	slliw	a0,s4,0x1f
    800010f4:	00f46433          	or	s0,s0,a5
    800010f8:	00a46533          	or	a0,s0,a0
    800010fc:	04813083          	ld	ra,72(sp)
    80001100:	04013403          	ld	s0,64(sp)
    80001104:	03813483          	ld	s1,56(sp)
    80001108:	03013903          	ld	s2,48(sp)
    8000110c:	02813983          	ld	s3,40(sp)
    80001110:	02013a03          	ld	s4,32(sp)
    80001114:	01813a83          	ld	s5,24(sp)
    80001118:	01013b03          	ld	s6,16(sp)
    8000111c:	00813b83          	ld	s7,8(sp)
    80001120:	05010113          	addi	sp,sp,80
    80001124:	00008067          	ret

0000000080001128 <__muldi3>:
    80001128:	00050613          	mv	a2,a0
    8000112c:	00000513          	li	a0,0
    80001130:	0015f693          	andi	a3,a1,1
    80001134:	00068463          	beqz	a3,8000113c <__muldi3+0x14>
    80001138:	00c50533          	add	a0,a0,a2
    8000113c:	0015d593          	srli	a1,a1,0x1
    80001140:	00161613          	slli	a2,a2,0x1
    80001144:	fe0596e3          	bnez	a1,80001130 <__muldi3+0x8>
    80001148:	00008067          	ret

000000008000114c <__clzdi2>:
    8000114c:	03800793          	li	a5,56
    80001150:	00f55733          	srl	a4,a0,a5
    80001154:	0ff77713          	andi	a4,a4,255
    80001158:	00071663          	bnez	a4,80001164 <__clzdi2+0x18>
    8000115c:	ff878793          	addi	a5,a5,-8
    80001160:	fe0798e3          	bnez	a5,80001150 <__clzdi2+0x4>
    80001164:	04000713          	li	a4,64
    80001168:	40f70733          	sub	a4,a4,a5
    8000116c:	00f557b3          	srl	a5,a0,a5
    80001170:	00000517          	auipc	a0,0x0
    80001174:	12050513          	addi	a0,a0,288 # 80001290 <__clz_tab>
    80001178:	00f507b3          	add	a5,a0,a5
    8000117c:	0007c503          	lbu	a0,0(a5)
    80001180:	40a7053b          	subw	a0,a4,a0
    80001184:	00008067          	ret
